target datalayout = "e-m:e-p270:32:32-p271:32:32-p272:64:64-i64:64-i128:128-f80:128-n8:16:32:64-S128"
target triple = "x86_64-pc-linux-gnu"

@.str.4 = private unnamed_addr constant [2 x i8] c"\0A\00", align 1
@.str.5 = private unnamed_addr constant [23 x i8] c"    booth [selection]\0A\00", align 1
@.str.6 = private unnamed_addr constant [82 x i8] c"This pass replaces multiplier cells with a radix-4 Booth-encoded implementation.\0A\00", align 1
@.str.7 = private unnamed_addr constant [77 x i8] c"It operates on $mul cells whose width of operands is at least 4x4 and whose\0A\00", align 1
@.str.8 = private unnamed_addr constant [32 x i8] c"width of result is at least 8.\0A\00", align 1
@.str.9 = private unnamed_addr constant [15 x i8] c"    -lowpower\0A\00", align 1
@.str.10 = private unnamed_addr constant [80 x i8] c"        use an alternative low-power architecture for the generated multiplier\0A\00", align 1
@.str.11 = private unnamed_addr constant [35 x i8] c"        (signed multipliers only)\0A\00", align 1

; Function Attrs: mustprogress uwtable
define internal void @_ZN12_GLOBAL__N_19BoothPass4helpEv(ptr noundef nonnull align 8 dereferenceable(104) %0) unnamed_addr #4 align 2 {
  %2 = alloca ptr, align 8
  store ptr %0, ptr %2, align 8, !tbaa !6
  call void (ptr, ...) @_ZN5Yosys3logEPKcz(ptr noundef @.str.4)
  call void (ptr, ...) @_ZN5Yosys3logEPKcz(ptr noundef @.str.5)
  call void (ptr, ...) @_ZN5Yosys3logEPKcz(ptr noundef @.str.4)
  call void (ptr, ...) @_ZN5Yosys3logEPKcz(ptr noundef @.str.6)
  call void (ptr, ...) @_ZN5Yosys3logEPKcz(ptr noundef @.str.7)
  call void (ptr, ...) @_ZN5Yosys3logEPKcz(ptr noundef @.str.8)
  call void (ptr, ...) @_ZN5Yosys3logEPKcz(ptr noundef @.str.4)
  call void (ptr, ...) @_ZN5Yosys3logEPKcz(ptr noundef @.str.9)
  call void (ptr, ...) @_ZN5Yosys3logEPKcz(ptr noundef @.str.10)
  call void (ptr, ...) @_ZN5Yosys3logEPKcz(ptr noundef @.str.11)
  call void (ptr, ...) @_ZN5Yosys3logEPKcz(ptr noundef @.str.4)
  ret void
}